; Function Attrs: mustprogress nounwind uwtable
define hidden void @_ZN16PSGenerationPoolC2EP8PSOldGenPKcb(ptr noundef nonnull align 8 dereferenceable(216) %0, ptr noundef %1, ptr noundef %2, i1 noundef zeroext %3) unnamed_addr #0 align 2 {
  %5 = getelementptr inbounds i8, ptr %1, i64 88
  %6 = load ptr, ptr %5, align 8
  %7 = getelementptr inbounds i8, ptr %6, i64 48
  %8 = load ptr, ptr %7, align 8
  %9 = getelementptr inbounds i8, ptr %6, i64 32
  %10 = load ptr, ptr %9, align 8
  %11 = ptrtoint ptr %8 to i64
  %12 = ptrtoint ptr %10 to i64
  %13 = sub i64 %11, %12
  %14 = and i64 %13, -8
  %15 = getelementptr inbounds i8, ptr %1, i64 8
  %16 = load ptr, ptr %15, align 8
  %17 = getelementptr inbounds i8, ptr %16, i64 16
  %18 = load ptr, ptr %17, align 8
  %19 = getelementptr inbounds i8, ptr %16, i64 24
  %20 = load ptr, ptr %19, align 8
  %21 = ptrtoint ptr %20 to i64
  %22 = ptrtoint ptr %18 to i64
  %23 = sub i64 %21, %22
  %24 = and i64 %23, -8
  tail call void @_ZN10MemoryPoolC2EPKcNS_8PoolTypeEmmbb(ptr noundef nonnull align 8 dereferenceable(201) %0, ptr noundef %2, i32 noundef 1, i64 noundef %14, i64 noundef %24, i1 noundef zeroext %3, i1 noundef zeroext true) #3
  store ptr getelementptr inbounds inrange(-16, 64) (i8, ptr @_ZTV16PSGenerationPool, i64 16), ptr %0, align 8
  %25 = getelementptr inbounds i8, ptr %0, i64 208
  store ptr %1, ptr %25, align 8
  ret void
}